#include <math.h>
#include <stdio.h>
#include <stdlib.h>
#include <string.h>
#include <iostream>
using namespace std;

int main()
{
    char words[128][128],gt;                     //???????words[][]???????gt 
    int m;                                       //??????????????????? 
    for(int i=0;i<128;i++)
    {
        cin>>words[i];
        gt=getchar();
        if(gt=='\n')
        {
            m=i;
            break;
        }                                        //???????????????? 
    }                                            //??getchar()?????????????????????????????????????? 
    for(int i=0;i<m;i++)cout<<words[i]<<' ';     //???????????????????????????????? 
    cout<<words[m];
    return 0;
}
